target datalayout = "e-m:e-p270:32:32-p271:32:32-p272:64:64-i64:64-i128:128-f80:128-n8:16:32:64-S128"
target triple = "x86_64-pc-linux-gnu"

%struct.AVFormatContext = type { ptr, ptr, ptr, ptr, ptr, i32, i32, ptr, i32, ptr, i32, ptr, ptr, i64, i64, i64, i32, i32, i32, i64, i64, ptr, i32, i32, ptr, i32, i32, i32, i32, ptr, i64, i32, i32, %struct.AVIOInterruptCB, i32, i32, i32, i32, i64, i32, i32, i32, i32, i32, i32, i32, i32, i32, i32, i32, i32, i64, i32, i32, i32, i32, i32, ptr, ptr, ptr, ptr, i32, ptr, ptr, ptr, ptr, i32, ptr, ptr, i64, ptr, ptr, ptr, i64 }
%struct.AVIOInterruptCB = type { ptr, ptr }
%struct.AVStream = type { ptr, i32, i32, ptr, ptr, %struct.AVRational, i64, i64, i64, i32, i32, %struct.AVRational, ptr, %struct.AVRational, %struct.AVPacket, i32, %struct.AVRational, i32 }
%struct.AVPacket = type { ptr, i64, i64, ptr, i32, i32, i32, ptr, i32, i64, i64, ptr, ptr, %struct.AVRational }
%struct.AVRational = type { i32, i32 }
%struct.AVCodecParameters = type { i32, i32, i32, ptr, i32, ptr, i32, i32, i64, i32, i32, i32, i32, i32, i32, %struct.AVRational, %struct.AVRational, i32, i32, i32, i32, i32, i32, i32, %struct.AVChannelLayout, i32, i32, i32, i32, i32, i32 }
%struct.AVChannelLayout = type { i32, i32, %union.anon.0, ptr }
%union.anon.0 = type { i64 }
%struct.FFFormatContext = type { %struct.AVFormatContext, i32, %struct.PacketList, i64, ptr, ptr, i32, ptr, i32 }
%struct.PacketList = type { ptr, ptr }

@.str.11 = private unnamed_addr constant [16 x i8] c"not a .c2 file\0A\00", align 1
@.str.12 = private unnamed_addr constant [17 x i8] c"Major version %i\00", align 1

; Function Attrs: alwaysinline nounwind uwtable
define internal ptr @ffformatcontext(ptr noundef %0) #4 {
  %2 = alloca ptr, align 8
  store ptr %0, ptr %2, align 8, !tbaa !14
  %3 = load ptr, ptr %2, align 8, !tbaa !14
  ret ptr %3
}

; Function Attrs: alwaysinline nounwind willreturn memory(none) uwtable
define internal zeroext i16 @av_bswap16(i16 noundef zeroext %0) #3 {
  %2 = alloca i16, align 2
  store i16 %0, ptr %2, align 2, !tbaa !60
  %3 = load i16, ptr %2, align 2, !tbaa !60
  %4 = zext i16 %3 to i32
  %5 = ashr i32 %4, 8
  %6 = load i16, ptr %2, align 2, !tbaa !60
  %7 = zext i16 %6 to i32
  %8 = shl i32 %7, 8
  %9 = or i32 %5, %8
  %10 = trunc i32 %9 to i16
  store i16 %10, ptr %2, align 2, !tbaa !60
  %11 = load i16, ptr %2, align 2, !tbaa !60
  ret i16 %11
}

; Function Attrs: nounwind uwtable
define internal i32 @codec2_read_header(ptr noundef %0) #0 {
  %2 = alloca i32, align 4
  %3 = alloca ptr, align 8
  %4 = alloca ptr, align 8
  %5 = alloca i32, align 4
  %6 = alloca i32, align 4
  %7 = alloca i32, align 4
  store ptr %0, ptr %3, align 8, !tbaa !14
  call void @llvm.lifetime.start.p0(i64 8, ptr %4) #7
  %8 = load ptr, ptr %3, align 8, !tbaa !14
  %9 = call ptr @avformat_new_stream(ptr noundef %8, ptr noundef null)
  store ptr %9, ptr %4, align 8, !tbaa !16
  call void @llvm.lifetime.start.p0(i64 4, ptr %5) #7
  call void @llvm.lifetime.start.p0(i64 4, ptr %6) #7
  %10 = load ptr, ptr %4, align 8, !tbaa !16
  %11 = icmp ne ptr %10, null
  br i1 %11, label %13, label %12

12:                                               ; preds = %1
  store i32 -12, ptr %2, align 4
  store i32 1, ptr %7, align 4
  br label %67

13:                                               ; preds = %1
  %14 = load ptr, ptr %3, align 8, !tbaa !14
  %15 = getelementptr inbounds nuw %struct.AVFormatContext, ptr %14, i32 0, i32 4
  %16 = load ptr, ptr %15, align 8, !tbaa !18
  %17 = call i32 @avio_rb24(ptr noundef %16)
  %18 = icmp ne i32 %17, 12639938
  br i1 %18, label %19, label %21

19:                                               ; preds = %13
  %20 = load ptr, ptr %3, align 8, !tbaa !14
  call void (ptr, i32, ptr, ...) @av_log(ptr noundef %20, i32 noundef 16, ptr noundef @.str.11)
  store i32 -1094995529, ptr %2, align 4
  store i32 1, ptr %7, align 4
  br label %67

21:                                               ; preds = %13
  %22 = load ptr, ptr %4, align 8, !tbaa !16
  %23 = getelementptr inbounds nuw %struct.AVStream, ptr %22, i32 0, i32 3
  %24 = load ptr, ptr %23, align 8, !tbaa !33
  %25 = call i32 @ff_alloc_extradata(ptr noundef %24, i32 noundef 4)
  store i32 %25, ptr %5, align 4, !tbaa !40
  %26 = load i32, ptr %5, align 4, !tbaa !40
  %27 = icmp ne i32 %26, 0
  br i1 %27, label %28, label %30

28:                                               ; preds = %21
  %29 = load i32, ptr %5, align 4, !tbaa !40
  store i32 %29, ptr %2, align 4
  store i32 1, ptr %7, align 4
  br label %67

30:                                               ; preds = %21
  %31 = load ptr, ptr %3, align 8, !tbaa !14
  %32 = getelementptr inbounds nuw %struct.AVFormatContext, ptr %31, i32 0, i32 4
  %33 = load ptr, ptr %32, align 8, !tbaa !18
  %34 = load ptr, ptr %4, align 8, !tbaa !16
  %35 = getelementptr inbounds nuw %struct.AVStream, ptr %34, i32 0, i32 3
  %36 = load ptr, ptr %35, align 8, !tbaa !33
  %37 = getelementptr inbounds nuw %struct.AVCodecParameters, ptr %36, i32 0, i32 3
  %38 = load ptr, ptr %37, align 8, !tbaa !41
  %39 = call i32 @ffio_read_size(ptr noundef %33, ptr noundef %38, i32 noundef 4)
  store i32 %39, ptr %5, align 4, !tbaa !40
  %40 = load i32, ptr %5, align 4, !tbaa !40
  %41 = icmp slt i32 %40, 0
  br i1 %41, label %42, label %44

42:                                               ; preds = %30
  %43 = load i32, ptr %5, align 4, !tbaa !40
  store i32 %43, ptr %2, align 4
  store i32 1, ptr %7, align 4
  br label %67

44:                                               ; preds = %30
  %45 = load ptr, ptr %4, align 8, !tbaa !16
  %46 = getelementptr inbounds nuw %struct.AVStream, ptr %45, i32 0, i32 3
  %47 = load ptr, ptr %46, align 8, !tbaa !33
  %48 = getelementptr inbounds nuw %struct.AVCodecParameters, ptr %47, i32 0, i32 3
  %49 = load ptr, ptr %48, align 8, !tbaa !41
  %50 = load i16, ptr %49, align 1, !tbaa !13
  %51 = call zeroext i16 @av_bswap16(i16 noundef zeroext %50) #8
  %52 = zext i16 %51 to i32
  store i32 %52, ptr %6, align 4, !tbaa !40
  %53 = load i32, ptr %6, align 4, !tbaa !40
  %54 = ashr i32 %53, 8
  %55 = icmp ne i32 %54, 0
  br i1 %55, label %56, label %60

56:                                               ; preds = %44
  %57 = load ptr, ptr %3, align 8, !tbaa !14
  %58 = load i32, ptr %6, align 4, !tbaa !40
  %59 = ashr i32 %58, 8
  call void (ptr, ptr, ...) @avpriv_report_missing_feature(ptr noundef %57, ptr noundef @.str.12, i32 noundef %59)
  store i32 -1163346256, ptr %2, align 4
  store i32 1, ptr %7, align 4
  br label %67

60:                                               ; preds = %44
  %61 = load ptr, ptr %3, align 8, !tbaa !14
  %62 = call ptr @ffformatcontext(ptr noundef %61)
  %63 = getelementptr inbounds nuw %struct.FFFormatContext, ptr %62, i32 0, i32 3
  store i64 7, ptr %63, align 8, !tbaa !44
  %64 = load ptr, ptr %3, align 8, !tbaa !14
  %65 = load ptr, ptr %4, align 8, !tbaa !16
  %66 = call i32 @codec2_read_header_common(ptr noundef %64, ptr noundef %65)
  store i32 %66, ptr %2, align 4
  store i32 1, ptr %7, align 4
  br label %67

67:                                               ; preds = %60, %56, %42, %28, %19, %12
  call void @llvm.lifetime.end.p0(i64 4, ptr %6) #7
  call void @llvm.lifetime.end.p0(i64 4, ptr %5) #7
  call void @llvm.lifetime.end.p0(i64 8, ptr %4) #7
  %68 = load i32, ptr %2, align 4
  ret i32 %68
}