; Function Attrs: nounwind uwtable
define internal i32 @codec2_read_header(ptr noundef %0) #1 {
  %2 = tail call ptr @avformat_new_stream(ptr noundef %0, ptr noundef null) #4
  %.not = icmp eq ptr %2, null
  br i1 %.not, label %31, label %3

3:                                                ; preds = %1
  %4 = getelementptr inbounds nuw i8, ptr %0, i64 32
  %5 = load ptr, ptr %4, align 8, !tbaa !12
  %6 = tail call i32 @avio_rb24(ptr noundef %5) #4
  %.not22 = icmp eq i32 %6, 12639938
  br i1 %.not22, label %8, label %7

7:                                                ; preds = %3
  tail call void (ptr, i32, ptr, ...) @av_log(ptr noundef nonnull %0, i32 noundef 16, ptr noundef nonnull @.str.11) #4
  br label %31

8:                                                ; preds = %3
  %9 = getelementptr inbounds nuw i8, ptr %2, i64 16
  %10 = load ptr, ptr %9, align 8, !tbaa !27
  %11 = tail call i32 @ff_alloc_extradata(ptr noundef %10, i32 noundef 4) #4
  %.not23 = icmp eq i32 %11, 0
  br i1 %.not23, label %12, label %31

12:                                               ; preds = %8
  %13 = load ptr, ptr %4, align 8, !tbaa !12
  %14 = load ptr, ptr %9, align 8, !tbaa !27
  %15 = getelementptr inbounds nuw i8, ptr %14, i64 16
  %16 = load ptr, ptr %15, align 8, !tbaa !34
  %17 = tail call i32 @ffio_read_size(ptr noundef %13, ptr noundef %16, i32 noundef 4) #4
  %18 = icmp slt i32 %17, 0
  br i1 %18, label %31, label %19

19:                                               ; preds = %12
  %20 = load ptr, ptr %9, align 8, !tbaa !27
  %21 = getelementptr inbounds nuw i8, ptr %20, i64 16
  %22 = load ptr, ptr %21, align 8, !tbaa !34
  %23 = load i16, ptr %22, align 1, !tbaa !11
  %24 = tail call i16 @llvm.bswap.i16(i16 %23)
  %.not24 = icmp ult i16 %24, 256
  br i1 %.not24, label %28, label %25

25:                                               ; preds = %19
  %26 = lshr i16 %24, 8
  %27 = zext nneg i16 %26 to i32
  tail call void (ptr, ptr, ...) @avpriv_report_missing_feature(ptr noundef nonnull %0, ptr noundef nonnull @.str.12, i32 noundef %27) #4
  br label %31

28:                                               ; preds = %19
  %29 = getelementptr inbounds nuw i8, ptr %0, i64 496
  store i64 7, ptr %29, align 8, !tbaa !37
  %30 = tail call fastcc i32 @codec2_read_header_common(ptr noundef nonnull %0, ptr noundef %2)
  br label %31

31:                                               ; preds = %12, %8, %1, %28, %25, %7
  %.0 = phi i32 [ -1094995529, %7 ], [ -1163346256, %25 ], [ %30, %28 ], [ -12, %1 ], [ %11, %8 ], [ %17, %12 ]
  ret i32 %.0
}